target datalayout = "e-m:e-p270:32:32-p271:32:32-p272:64:64-i64:64-i128:128-f80:128-n8:16:32:64-S128"
target triple = "x86_64-pc-linux-gnu"

@pctx = internal global ptr null, align 8

; Function Attrs: nounwind uwtable
define dso_local i32 @FuzzerInitialize(ptr noundef %0, ptr noundef %1) #0 {
  %3 = alloca ptr, align 8
  %4 = alloca ptr, align 8
  store ptr %0, ptr %3, align 8, !tbaa !4
  store ptr %1, ptr %4, align 8, !tbaa !9
  call void @FuzzerSetRand()
  %5 = call ptr @ASN1_PCTX_new()
  store ptr %5, ptr @pctx, align 8, !tbaa !11
  %6 = load ptr, ptr @pctx, align 8, !tbaa !11
  call void @ASN1_PCTX_set_flags(ptr noundef %6, i64 noundef 143)
  %7 = load ptr, ptr @pctx, align 8, !tbaa !11
  call void @ASN1_PCTX_set_str_flags(ptr noundef %7, i64 noundef 208)
  %8 = call i32 @OPENSSL_init_crypto(i64 noundef 2, ptr noundef null)
  %9 = call i32 @OPENSSL_init_ssl(i64 noundef 2097152, ptr noundef null)
  call void @ERR_clear_error()
  %10 = call i32 @CRYPTO_free_ex_index(i32 noundef 0, i32 noundef -1)
  ret i32 1
}