; Function Attrs: nounwind uwtable
define dso_local noundef i32 @FuzzerInitialize(ptr noundef readnone captures(none) %0, ptr noundef readnone captures(none) %1) local_unnamed_addr #0 {
  tail call void @FuzzerSetRand() #3
  %3 = tail call ptr @ASN1_PCTX_new() #3
  store ptr %3, ptr @pctx, align 8, !tbaa !4
  tail call void @ASN1_PCTX_set_flags(ptr noundef %3, i64 noundef 143) #3
  %4 = load ptr, ptr @pctx, align 8, !tbaa !4
  tail call void @ASN1_PCTX_set_str_flags(ptr noundef %4, i64 noundef 208) #3
  %5 = tail call i32 @OPENSSL_init_crypto(i64 noundef 2, ptr noundef null) #3
  %6 = tail call i32 @OPENSSL_init_ssl(i64 noundef 2097152, ptr noundef null) #3
  tail call void @ERR_clear_error() #3
  %7 = tail call i32 @CRYPTO_free_ex_index(i32 noundef 0, i32 noundef -1) #3
  ret i32 1
}